; Function Attrs: nounwind uwtable
define dso_local ptr @get_namespace_name_or_temp(i32 noundef %0) local_unnamed_addr #0 {
  %2 = tail call zeroext i1 @isTempNamespace(i32 noundef %0) #8
  br i1 %2, label %3, label %5

3:                                                ; preds = %1
  %4 = tail call ptr @pstrdup(ptr noundef nonnull @.str.21) #8
  br label %get_namespace_name.exit

5:                                                ; preds = %1
  %6 = zext i32 %0 to i64
  %7 = tail call ptr @SearchSysCache1(i32 noundef 38, i64 noundef %6) #8
  %.not.i = icmp eq ptr %7, null
  br i1 %.not.i, label %get_namespace_name.exit, label %8

8:                                                ; preds = %5
  %9 = getelementptr i8, ptr %7, i64 16
  %.val.i = load ptr, ptr %9, align 8
  %10 = getelementptr inbounds nuw i8, ptr %.val.i, i64 22
  %11 = load i8, ptr %10, align 2
  %12 = zext i8 %11 to i64
  %13 = getelementptr inbounds nuw i8, ptr %.val.i, i64 %12
  %14 = getelementptr inbounds nuw i8, ptr %13, i64 4
  %15 = tail call ptr @pstrdup(ptr noundef nonnull %14) #8
  tail call void @ReleaseSysCache(ptr noundef nonnull %7) #8
  br label %get_namespace_name.exit

get_namespace_name.exit:                          ; preds = %8, %5, %3
  %.0 = phi ptr [ %4, %3 ], [ %15, %8 ], [ null, %5 ]
  ret ptr %.0
}